; Function Attrs: nounwind uwtable
define internal i32 @test_CTX_set1_get0_validatedSrvCert() #1 {
  %1 = tail call fastcc ptr @set_up(ptr noundef nonnull @.str.18)
  %2 = icmp eq ptr %1, null
  br i1 %2, label %50, label %3

3:                                                ; preds = %0
  %4 = getelementptr i8, ptr %1, i64 8
  %.val = load ptr, ptr %4, align 8, !tbaa !4
  %5 = tail call ptr @X509_new() #6
  %6 = tail call ptr @X509_new() #6
  %7 = tail call i64 @ERR_peek_error() #6
  %8 = trunc i64 %7 to i32
  %9 = tail call i32 @test_int_eq(ptr noundef nonnull @.str, i32 noundef 764, ptr noundef nonnull @.str.62, ptr noundef nonnull @.str.63, i32 noundef %8, i32 noundef 0) #6
  tail call void @ERR_clear_error() #6
  %10 = tail call ptr @OSSL_CMP_CTX_get0_validatedSrvCert(ptr noundef null) #6
  %.not28.i = icmp eq ptr %10, null
  br i1 %.not28.i, label %11, label %14

11:                                               ; preds = %3
  %.not.i = icmp ne i32 %9, 0
  %spec.select.i = zext i1 %.not.i to i32
  %12 = tail call i64 @ERR_peek_error() #6
  %13 = icmp eq i64 %12, 0
  br i1 %13, label %14, label %15

14:                                               ; preds = %11, %3
  tail call void (ptr, i32, ptr, ...) @test_error(ptr noundef nonnull @.str, i32 noundef 764, ptr noundef nonnull @.str.65) #6
  br label %15

15:                                               ; preds = %14, %11
  %.1.i = phi i32 [ 0, %14 ], [ %spec.select.i, %11 ]
  tail call void @ERR_clear_error() #6
  %16 = tail call ptr @OSSL_CMP_CTX_get0_validatedSrvCert(ptr noundef %.val) #6
  %17 = icmp eq ptr %16, null
  br i1 %17, label %19, label %18

18:                                               ; preds = %15
  tail call void (ptr, i32, ptr, ...) @test_error(ptr noundef nonnull @.str, i32 noundef 764, ptr noundef nonnull @.str.66) #6
  br label %19

19:                                               ; preds = %18, %15
  %.2.i = phi i32 [ %.1.i, %15 ], [ 0, %18 ]
  %20 = tail call i32 @ossl_cmp_ctx_set1_validatedSrvCert(ptr noundef %.val, ptr noundef %5) #6
  %.not29.i = icmp eq i32 %20, 0
  br i1 %.not29.i, label %21, label %22

21:                                               ; preds = %19
  tail call void (ptr, i32, ptr, ...) @test_error(ptr noundef nonnull @.str, i32 noundef 764, ptr noundef nonnull @.str.67) #6
  br label %22

22:                                               ; preds = %21, %19
  %.3.i = phi i32 [ %.2.i, %19 ], [ 0, %21 ]
  %23 = tail call ptr @OSSL_CMP_CTX_get0_validatedSrvCert(ptr noundef %.val) #6
  %24 = icmp eq ptr %23, null
  br i1 %24, label %25, label %26

25:                                               ; preds = %22
  tail call void (ptr, i32, ptr, ...) @test_error(ptr noundef nonnull @.str, i32 noundef 764, ptr noundef nonnull @.str.123) #6
  br label %26

26:                                               ; preds = %25, %22
  %.4.i = phi i32 [ 0, %25 ], [ %.3.i, %22 ]
  %27 = tail call i32 @ossl_cmp_ctx_set1_validatedSrvCert(ptr noundef %.val, ptr noundef %6) #6
  %.not30.i = icmp eq i32 %27, 0
  br i1 %.not30.i, label %28, label %29

28:                                               ; preds = %26
  tail call void (ptr, i32, ptr, ...) @test_error(ptr noundef nonnull @.str, i32 noundef 764, ptr noundef nonnull @.str.69) #6
  br label %29

29:                                               ; preds = %28, %26
  %.5.i = phi i32 [ %.4.i, %26 ], [ 0, %28 ]
  %30 = tail call ptr @OSSL_CMP_CTX_get0_validatedSrvCert(ptr noundef %.val) #6
  %31 = icmp eq ptr %30, null
  br i1 %31, label %32, label %33

32:                                               ; preds = %29
  tail call void (ptr, i32, ptr, ...) @test_error(ptr noundef nonnull @.str, i32 noundef 764, ptr noundef nonnull @.str.70) #6
  br label %33

33:                                               ; preds = %32, %29
  %.6.i = phi i32 [ 0, %32 ], [ %.5.i, %29 ]
  %34 = icmp eq ptr %6, %5
  br i1 %34, label %35, label %36

35:                                               ; preds = %33
  tail call void (ptr, i32, ptr, ...) @test_error(ptr noundef nonnull @.str, i32 noundef 764, ptr noundef nonnull @.str.125) #6
  br label %36

36:                                               ; preds = %35, %33
  %.7.i = phi i32 [ 0, %35 ], [ %.6.i, %33 ]
  %37 = tail call ptr @OSSL_CMP_CTX_get0_validatedSrvCert(ptr noundef %.val) #6
  %38 = icmp eq ptr %37, null
  br i1 %38, label %39, label %40

39:                                               ; preds = %36
  tail call void (ptr, i32, ptr, ...) @test_error(ptr noundef nonnull @.str, i32 noundef 764, ptr noundef nonnull @.str.72) #6
  br label %40

40:                                               ; preds = %39, %36
  %.8.i = phi i32 [ 0, %39 ], [ %.7.i, %36 ]
  %.not31.i = icmp eq ptr %37, %30
  br i1 %.not31.i, label %tear_down.exit, label %41

41:                                               ; preds = %40
  tail call void (ptr, i32, ptr, ...) @test_error(ptr noundef nonnull @.str, i32 noundef 764, ptr noundef nonnull @.str.73) #6
  br label %tear_down.exit

tear_down.exit:                                   ; preds = %40, %41
  %.9.i = phi i32 [ 0, %41 ], [ %.8.i, %40 ]
  %42 = tail call i64 @ERR_peek_error() #6
  %43 = trunc i64 %42 to i32
  %44 = tail call i32 @test_int_eq(ptr noundef nonnull @.str, i32 noundef 764, ptr noundef nonnull @.str.62, ptr noundef nonnull @.str.63, i32 noundef %43, i32 noundef 0) #6
  %.not32.i = icmp ne i32 %44, 0
  tail call void @X509_free(ptr noundef %5) #6
  tail call void @X509_free(ptr noundef %6) #6
  %45 = icmp ne i32 %.9.i, 0
  %46 = select i1 %.not32.i, i1 %45, i1 false
  %47 = zext i1 %46 to i32
  %48 = tail call i32 @test_true(ptr noundef nonnull @.str, i32 noundef 764, ptr noundef nonnull @.str.74, i32 noundef %47) #6
  %49 = load ptr, ptr %4, align 8, !tbaa !4
  tail call void @OSSL_CMP_CTX_free(ptr noundef %49) #6
  tail call void @CRYPTO_free(ptr noundef nonnull %1, ptr noundef nonnull @.str, i32 noundef 25) #6
  br label %50

50:                                               ; preds = %0, %tear_down.exit
  %.05 = phi i32 [ %48, %tear_down.exit ], [ 0, %0 ]
  ret i32 %.05
}